target datalayout = "e-m:e-p270:32:32-p271:32:32-p272:64:64-i64:64-i128:128-f80:128-n8:16:32:64-S128"
target triple = "x86_64-pc-linux-gnu"

%"class.datalog::bmc" = type { %"class.datalog::engine_base", ptr, ptr, %class.ref, %"class.datalog::rule_set", %class.obj_ref, %class.obj_ref.25, %class.ref_vector }
%"class.datalog::engine_base" = type { ptr, ptr, %"class.std::__cxx11::basic_string" }
%"class.std::__cxx11::basic_string" = type { %"struct.std::__cxx11::basic_string<char>::_Alloc_hider", i64, %union.anon }
%"struct.std::__cxx11::basic_string<char>::_Alloc_hider" = type { ptr }
%union.anon = type { i64, [8 x i8] }
%class.ref = type { ptr }
%"class.datalog::rule_set" = type { ptr, ptr, %class.ref_vector, %class.obj_map, %"class.datalog::rule_dependencies", %class.scoped_ptr, %class.obj_hashtable.9, %class.obj_map.15, %class.obj_map.15, %class.ref_vector.20, %class.ptr_vector }
%class.obj_map = type { %class.core_hashtable }
%class.core_hashtable = type <{ ptr, i32, i32, i32, [4 x i8] }>
%"class.datalog::rule_dependencies" = type { %class.obj_map.0, ptr, %class.ptr_vector.5, %class.expr_sparse_mark, %class.obj_hashtable.9 }
%class.obj_map.0 = type { %class.core_hashtable.1 }
%class.core_hashtable.1 = type <{ ptr, i32, i32, i32, [4 x i8] }>
%class.ptr_vector.5 = type { %class.vector.6 }
%class.vector.6 = type { ptr }
%class.expr_sparse_mark = type { %class.obj_hashtable }
%class.obj_hashtable = type { %class.core_hashtable.base.8, [4 x i8] }
%class.core_hashtable.base.8 = type <{ ptr, i32, i32, i32 }>
%class.scoped_ptr = type { ptr }
%class.obj_hashtable.9 = type { %class.core_hashtable.base.13, [4 x i8] }
%class.core_hashtable.base.13 = type <{ ptr, i32, i32, i32 }>
%class.obj_map.15 = type { %class.core_hashtable.16 }
%class.core_hashtable.16 = type <{ ptr, i32, i32, i32, [4 x i8] }>
%class.ref_vector.20 = type { %class.ref_vector_core.21 }
%class.ref_vector_core.21 = type { %class.ref_manager_wrapper.22, %class.ptr_vector.23 }
%class.ref_manager_wrapper.22 = type { ptr }
%class.ptr_vector.23 = type { %class.vector.24 }
%class.vector.24 = type { ptr }
%class.ptr_vector = type { %class.vector }
%class.vector = type { ptr }
%class.obj_ref = type { ptr, ptr }
%class.obj_ref.25 = type { ptr, ptr }
%class.ref_vector = type { %class.ref_vector_core }
%class.ref_vector_core = type { %class.ref_manager_wrapper, %class.ptr_vector }
%class.ref_manager_wrapper = type { ptr }
%class.ast = type { i32, i32, i32, i32 }

; Function Attrs: mustprogress nounwind uwtable
define linkonce_odr hidden void @_ZN3ast7inc_refEv(ptr noundef nonnull align 4 dereferenceable(16) %0) #5 comdat align 2 {
  %2 = alloca ptr, align 8
  store ptr %0, ptr %2, align 8, !tbaa !286
  %3 = load ptr, ptr %2, align 8
  %4 = getelementptr inbounds nuw %class.ast, ptr %3, i32 0, i32 2
  %5 = load i32, ptr %4, align 4, !tbaa !539
  %6 = add i32 %5, 1
  store i32 %6, ptr %4, align 4, !tbaa !539
  ret void
}

; Function Attrs: mustprogress uwtable
define linkonce_odr hidden void @_ZN11ast_manager7inc_refEP3ast(ptr noundef nonnull align 8 dereferenceable(976) %0, ptr noundef %1) #4 comdat align 2 {
  %3 = alloca ptr, align 8
  %4 = alloca ptr, align 8
  store ptr %0, ptr %3, align 8, !tbaa !12
  store ptr %1, ptr %4, align 8, !tbaa !286
  %5 = load ptr, ptr %4, align 8, !tbaa !286
  %6 = icmp ne ptr %5, null
  br i1 %6, label %7, label %9

7:                                                ; preds = %2
  %8 = load ptr, ptr %4, align 8, !tbaa !286
  call void @_ZN3ast7inc_refEv(ptr noundef nonnull align 4 dereferenceable(16) %8)
  br label %9

9:                                                ; preds = %7, %2
  ret void
}

; Function Attrs: mustprogress uwtable
define linkonce_odr hidden void @_ZN7obj_refI4expr11ast_managerE7inc_refEv(ptr noundef nonnull align 8 dereferenceable(16) %0) #4 comdat align 2 {
  %2 = alloca ptr, align 8
  store ptr %0, ptr %2, align 8, !tbaa !228
  %3 = load ptr, ptr %2, align 8
  %4 = getelementptr inbounds nuw %class.obj_ref.25, ptr %3, i32 0, i32 0
  %5 = load ptr, ptr %4, align 8, !tbaa !230
  %6 = icmp ne ptr %5, null
  br i1 %6, label %7, label %12

7:                                                ; preds = %1
  %8 = getelementptr inbounds nuw %class.obj_ref.25, ptr %3, i32 0, i32 1
  %9 = load ptr, ptr %8, align 8, !tbaa !240
  %10 = getelementptr inbounds nuw %class.obj_ref.25, ptr %3, i32 0, i32 0
  %11 = load ptr, ptr %10, align 8, !tbaa !230
  call void @_ZN11ast_manager7inc_refEP3ast(ptr noundef nonnull align 8 dereferenceable(976) %9, ptr noundef %11)
  br label %12

12:                                               ; preds = %7, %1
  ret void
}

; Function Attrs: mustprogress uwtable
define linkonce_odr hidden void @_ZN7obj_refI4expr11ast_managerEC2ERKS2_(ptr noundef nonnull align 8 dereferenceable(16) %0, ptr noundef nonnull align 8 dereferenceable(16) %1) unnamed_addr #4 comdat align 2 {
  %3 = alloca ptr, align 8
  %4 = alloca ptr, align 8
  store ptr %0, ptr %3, align 8, !tbaa !228
  store ptr %1, ptr %4, align 8, !tbaa !228
  %5 = load ptr, ptr %3, align 8
  %6 = getelementptr inbounds nuw %class.obj_ref.25, ptr %5, i32 0, i32 0
  %7 = load ptr, ptr %4, align 8, !tbaa !228
  %8 = getelementptr inbounds nuw %class.obj_ref.25, ptr %7, i32 0, i32 0
  %9 = load ptr, ptr %8, align 8, !tbaa !230
  store ptr %9, ptr %6, align 8, !tbaa !230
  %10 = getelementptr inbounds nuw %class.obj_ref.25, ptr %5, i32 0, i32 1
  %11 = load ptr, ptr %4, align 8, !tbaa !228
  %12 = getelementptr inbounds nuw %class.obj_ref.25, ptr %11, i32 0, i32 1
  %13 = load ptr, ptr %12, align 8, !tbaa !240
  store ptr %13, ptr %10, align 8, !tbaa !12
  call void @_ZN7obj_refI4expr11ast_managerE7inc_refEv(ptr noundef nonnull align 8 dereferenceable(16) %5)
  ret void
}

; Function Attrs: mustprogress uwtable
define hidden void @_ZN7datalog3bmc10get_answerEv(ptr dead_on_unwind noalias writable sret(%class.obj_ref.25) align 8 %0, ptr noundef nonnull align 8 dereferenceable(368) %1) unnamed_addr #4 align 2 {
  %3 = alloca ptr, align 8
  %4 = alloca ptr, align 8
  store ptr %0, ptr %3, align 8
  store ptr %1, ptr %4, align 8, !tbaa !3
  %5 = load ptr, ptr %4, align 8
  %6 = getelementptr inbounds nuw %"class.datalog::bmc", ptr %5, i32 0, i32 6
  call void @_ZN7obj_refI4expr11ast_managerEC2ERKS2_(ptr noundef nonnull align 8 dereferenceable(16) %0, ptr noundef nonnull align 8 dereferenceable(16) %6)
  ret void
}