; Function Attrs: mustprogress nofree norecurse nosync nounwind willreturn memory(readwrite, inaccessiblemem: none) uwtable
define hidden void @_ZN7datalog3bmc10get_answerEv(ptr dead_on_unwind noalias writable writeonly sret(%class.obj_ref.25) align 8 captures(none) initializes((0, 16)) %0, ptr noundef nonnull readonly align 8 captures(none) dereferenceable(368) %1) unnamed_addr #7 align 2 {
  %3 = getelementptr inbounds nuw i8, ptr %1, i64 336
  %4 = load ptr, ptr %3, align 8, !tbaa !222
  store ptr %4, ptr %0, align 8, !tbaa !222
  %5 = getelementptr inbounds nuw i8, ptr %0, i64 8
  %6 = getelementptr inbounds nuw i8, ptr %1, i64 344
  %7 = load ptr, ptr %6, align 8, !tbaa !226
  store ptr %7, ptr %5, align 8, !tbaa !204
  %.not.i.i = icmp eq ptr %4, null
  br i1 %.not.i.i, label %_ZN7obj_refI4expr11ast_managerEC2ERKS2_.exit, label %_ZN11ast_manager7inc_refEP3ast.exit.i.i

_ZN11ast_manager7inc_refEP3ast.exit.i.i:          ; preds = %2
  %8 = getelementptr inbounds nuw i8, ptr %4, i64 8
  %9 = load i32, ptr %8, align 4, !tbaa !227
  %10 = add i32 %9, 1
  store i32 %10, ptr %8, align 4, !tbaa !227
  br label %_ZN7obj_refI4expr11ast_managerEC2ERKS2_.exit

_ZN7obj_refI4expr11ast_managerEC2ERKS2_.exit:     ; preds = %2, %_ZN11ast_manager7inc_refEP3ast.exit.i.i
  ret void
}